; ModuleID = '31/136.c'
source_filename = "31/136.c"
target datalayout = "e-m:e-p270:32:32-p271:32:32-p272:64:64-i64:64-f80:128-n8:16:32:64-S128"
target triple = "x86_64-pc-linux-gnu"

%struct.stu = type { [500 x i8], %struct.stu*, %struct.stu* }

@.str = private unnamed_addr constant [4 x i8] c"end\00", align 1
@.str.1 = private unnamed_addr constant [4 x i8] c"%s\0A\00", align 1

; Function Attrs: noinline nounwind uwtable
define dso_local void @main() #0 {
  %1 = alloca i32, align 4
  %2 = alloca %struct.stu*, align 8
  %3 = alloca %struct.stu*, align 8
  %4 = alloca %struct.stu*, align 8
  %5 = alloca %struct.stu*, align 8
  %6 = alloca %struct.stu*, align 8
  store i32 0, i32* %1, align 4
  %7 = call noalias i8* @malloc(i64 520) #4
  %8 = bitcast i8* %7 to %struct.stu*
  store %struct.stu* %8, %struct.stu** %3, align 8
  store %struct.stu* %8, %struct.stu** %2, align 8
  %9 = load %struct.stu*, %struct.stu** %2, align 8
  %10 = getelementptr inbounds %struct.stu, %struct.stu* %9, i32 0, i32 0
  %11 = getelementptr inbounds [500 x i8], [500 x i8]* %10, i64 0, i64 0
  %12 = call i32 (i8*, ...) bitcast (i32 (...)* @gets to i32 (i8*, ...)*)(i8* %11)
  br label %13

13:                                               ; preds = %35, %0
  %14 = load %struct.stu*, %struct.stu** %2, align 8
  %15 = getelementptr inbounds %struct.stu, %struct.stu* %14, i32 0, i32 0
  %16 = getelementptr inbounds [500 x i8], [500 x i8]* %15, i64 0, i64 0
  %17 = call i32 @strcmp(i8* %16, i8* getelementptr inbounds ([4 x i8], [4 x i8]* @.str, i64 0, i64 0)) #5
  %18 = icmp ne i32 %17, 0
  br i1 %18, label %19, label %43

19:                                               ; preds = %13
  %20 = load i32, i32* %1, align 4
  %21 = add nsw i32 %20, 1
  store i32 %21, i32* %1, align 4
  %22 = load i32, i32* %1, align 4
  %23 = icmp eq i32 %22, 1
  br i1 %23, label %24, label %28

24:                                               ; preds = %19
  %25 = load %struct.stu*, %struct.stu** %2, align 8
  store %struct.stu* %25, %struct.stu** %4, align 8
  %26 = load %struct.stu*, %struct.stu** %2, align 8
  %27 = getelementptr inbounds %struct.stu, %struct.stu* %26, i32 0, i32 2
  store %struct.stu* null, %struct.stu** %27, align 8
  br label %35

28:                                               ; preds = %19
  %29 = load %struct.stu*, %struct.stu** %2, align 8
  %30 = load %struct.stu*, %struct.stu** %3, align 8
  %31 = getelementptr inbounds %struct.stu, %struct.stu* %30, i32 0, i32 1
  store %struct.stu* %29, %struct.stu** %31, align 8
  %32 = load %struct.stu*, %struct.stu** %3, align 8
  %33 = load %struct.stu*, %struct.stu** %2, align 8
  %34 = getelementptr inbounds %struct.stu, %struct.stu* %33, i32 0, i32 2
  store %struct.stu* %32, %struct.stu** %34, align 8
  br label %35

35:                                               ; preds = %28, %24
  %36 = load %struct.stu*, %struct.stu** %2, align 8
  store %struct.stu* %36, %struct.stu** %3, align 8
  %37 = call noalias i8* @malloc(i64 520) #4
  %38 = bitcast i8* %37 to %struct.stu*
  store %struct.stu* %38, %struct.stu** %2, align 8
  %39 = load %struct.stu*, %struct.stu** %2, align 8
  %40 = getelementptr inbounds %struct.stu, %struct.stu* %39, i32 0, i32 0
  %41 = getelementptr inbounds [500 x i8], [500 x i8]* %40, i64 0, i64 0
  %42 = call i32 (i8*, ...) bitcast (i32 (...)* @gets to i32 (i8*, ...)*)(i8* %41)
  br label %13

43:                                               ; preds = %13
  %44 = load %struct.stu*, %struct.stu** %3, align 8
  %45 = getelementptr inbounds %struct.stu, %struct.stu* %44, i32 0, i32 1
  store %struct.stu* null, %struct.stu** %45, align 8
  %46 = load %struct.stu*, %struct.stu** %3, align 8
  store %struct.stu* %46, %struct.stu** %5, align 8
  %47 = load %struct.stu*, %struct.stu** %5, align 8
  store %struct.stu* %47, %struct.stu** %6, align 8
  br label %48

48:                                               ; preds = %56, %43
  %49 = load %struct.stu*, %struct.stu** %6, align 8
  %50 = getelementptr inbounds %struct.stu, %struct.stu* %49, i32 0, i32 0
  %51 = getelementptr inbounds [500 x i8], [500 x i8]* %50, i64 0, i64 0
  %52 = call i32 (i8*, ...) @printf(i8* getelementptr inbounds ([4 x i8], [4 x i8]* @.str.1, i64 0, i64 0), i8* %51)
  %53 = load %struct.stu*, %struct.stu** %6, align 8
  %54 = getelementptr inbounds %struct.stu, %struct.stu* %53, i32 0, i32 2
  %55 = load %struct.stu*, %struct.stu** %54, align 8
  store %struct.stu* %55, %struct.stu** %6, align 8
  br label %56

56:                                               ; preds = %48
  %57 = load %struct.stu*, %struct.stu** %6, align 8
  %58 = icmp ne %struct.stu* %57, null
  br i1 %58, label %48, label %59

59:                                               ; preds = %56
  ret void
}

; Function Attrs: nounwind
declare dso_local noalias i8* @malloc(i64) #1

declare dso_local i32 @gets(...) #2

; Function Attrs: nounwind readonly
declare dso_local i32 @strcmp(i8*, i8*) #3

declare dso_local i32 @printf(i8*, ...) #2


!llvm.module.flags = !{!0}
!llvm.ident = !{!1}

!0 = !{i32 1, !"wchar_size", i32 4}
!1 = !{!"clang version 10.0.0-4ubuntu1 "}
